; Function Attrs: mustprogress nounwind uwtable
define dso_local noundef ptr @_ZN4llvm9DIBuilder16createEnumeratorENS_9StringRefERKNS_6APSIntE(ptr nocapture noundef nonnull readonly align 8 dereferenceable(416) %0, ptr %1, i64 %2, ptr noundef nonnull align 8 dereferenceable(13) %3) local_unnamed_addr #0 align 2 {
  %5 = alloca %"class.llvm::APInt", align 8
  %6 = getelementptr inbounds nuw i8, ptr %0, i64 8
  %7 = load ptr, ptr %6, align 8
  %8 = getelementptr inbounds nuw i8, ptr %5, i64 8
  %9 = getelementptr inbounds nuw i8, ptr %3, i64 8
  %10 = load i32, ptr %9, align 8
  store i32 %10, ptr %8, align 8
  %11 = icmp ult i32 %10, 65
  br i1 %11, label %12, label %14

12:                                               ; preds = %4
  %13 = load i64, ptr %3, align 8
  store i64 %13, ptr %5, align 8
  br label %_ZN4llvm5APIntC2ERKS0_.exit

14:                                               ; preds = %4
  call void @_ZN4llvm5APInt12initSlowCaseERKS0_(ptr noundef nonnull align 8 dereferenceable(12) %5, ptr noundef nonnull align 8 dereferenceable(12) %3) #13
  br label %_ZN4llvm5APIntC2ERKS0_.exit

_ZN4llvm5APIntC2ERKS0_.exit:                      ; preds = %12, %14
  %15 = getelementptr inbounds nuw i8, ptr %3, i64 12
  %16 = load i8, ptr %15, align 4
  %17 = trunc i8 %16 to i1
  %18 = icmp eq i64 %2, 0
  br i1 %18, label %_ZN4llvm12DIEnumerator3getERNS_11LLVMContextENS_5APIntEbNS_9StringRefE.exit, label %19

19:                                               ; preds = %_ZN4llvm5APIntC2ERKS0_.exit
  %20 = call noundef ptr @_ZN4llvm8MDString3getERNS_11LLVMContextENS_9StringRefE(ptr noundef nonnull align 8 dereferenceable(8) %7, ptr %1, i64 %2) #13
  br label %_ZN4llvm12DIEnumerator3getERNS_11LLVMContextENS_5APIntEbNS_9StringRefE.exit

_ZN4llvm12DIEnumerator3getERNS_11LLVMContextENS_5APIntEbNS_9StringRefE.exit: ; preds = %_ZN4llvm5APIntC2ERKS0_.exit, %19
  %.0.i.i.i = phi ptr [ %20, %19 ], [ null, %_ZN4llvm5APIntC2ERKS0_.exit ]
  %21 = call noundef ptr @_ZN4llvm12DIEnumerator7getImplERNS_11LLVMContextERKNS_5APIntEbPNS_8MDStringENS_8Metadata11StorageTypeEb(ptr noundef nonnull align 8 dereferenceable(8) %7, ptr noundef nonnull align 8 dereferenceable(12) %5, i1 noundef zeroext %17, ptr noundef %.0.i.i.i, i32 noundef 0, i1 noundef zeroext true) #13
  %22 = load i32, ptr %8, align 8
  %23 = icmp ugt i32 %22, 64
  br i1 %23, label %24, label %_ZN4llvm5APIntD2Ev.exit

24:                                               ; preds = %_ZN4llvm12DIEnumerator3getERNS_11LLVMContextENS_5APIntEbNS_9StringRefE.exit
  %25 = load ptr, ptr %5, align 8
  %26 = icmp eq ptr %25, null
  br i1 %26, label %_ZN4llvm5APIntD2Ev.exit, label %27

27:                                               ; preds = %24
  call void @_ZdaPv(ptr noundef nonnull %25) #14
  br label %_ZN4llvm5APIntD2Ev.exit

_ZN4llvm5APIntD2Ev.exit:                          ; preds = %_ZN4llvm12DIEnumerator3getERNS_11LLVMContextENS_5APIntEbNS_9StringRefE.exit, %24, %27
  ret ptr %21
}